
got_magic:     file format elf64-x86-64


Disassembly of section .init:

00000000000008d8 <_init>:
 8d8:	48 83 ec 08          	sub    rsp,0x8
 8dc:	48 8b 05 05 17 20 00 	mov    rax,QWORD PTR [rip+0x201705]        # 201fe8 <__gmon_start__>
 8e3:	48 85 c0             	test   rax,rax
 8e6:	74 02                	je     8ea <_init+0x12>
 8e8:	ff d0                	call   rax
 8ea:	48 83 c4 08          	add    rsp,0x8
 8ee:	c3                   	ret    

Disassembly of section .plt:

00000000000008f0 <.plt>:
 8f0:	ff 35 12 17 20 00    	push   QWORD PTR [rip+0x201712]        # 202008 <_GLOBAL_OFFSET_TABLE_+0x8>
 8f6:	ff 25 14 17 20 00    	jmp    QWORD PTR [rip+0x201714]        # 202010 <_GLOBAL_OFFSET_TABLE_+0x10>
 8fc:	0f 1f 40 00          	nop    DWORD PTR [rax+0x0]

0000000000000900 <_exit@plt>:
 900:	ff 25 12 17 20 00    	jmp    QWORD PTR [rip+0x201712]        # 202018 <_exit@GLIBC_2.2.5>
 906:	68 00 00 00 00       	push   0x0
 90b:	e9 e0 ff ff ff       	jmp    8f0 <.plt>

0000000000000910 <readlink@plt>:
 910:	ff 25 0a 17 20 00    	jmp    QWORD PTR [rip+0x20170a]        # 202020 <readlink@GLIBC_2.2.5>
 916:	68 01 00 00 00       	push   0x1
 91b:	e9 d0 ff ff ff       	jmp    8f0 <.plt>

0000000000000920 <write@plt>:
 920:	ff 25 02 17 20 00    	jmp    QWORD PTR [rip+0x201702]        # 202028 <write@GLIBC_2.2.5>
 926:	68 02 00 00 00       	push   0x2
 92b:	e9 c0 ff ff ff       	jmp    8f0 <.plt>

0000000000000930 <__stack_chk_fail@plt>:
 930:	ff 25 fa 16 20 00    	jmp    QWORD PTR [rip+0x2016fa]        # 202030 <__stack_chk_fail@GLIBC_2.4>
 936:	68 03 00 00 00       	push   0x3
 93b:	e9 b0 ff ff ff       	jmp    8f0 <.plt>

0000000000000940 <printf@plt>:
 940:	ff 25 f2 16 20 00    	jmp    QWORD PTR [rip+0x2016f2]        # 202038 <printf@GLIBC_2.2.5>
 946:	68 04 00 00 00       	push   0x4
 94b:	e9 a0 ff ff ff       	jmp    8f0 <.plt>

0000000000000950 <snprintf@plt>:
 950:	ff 25 ea 16 20 00    	jmp    QWORD PTR [rip+0x2016ea]        # 202040 <snprintf@GLIBC_2.2.5>
 956:	68 05 00 00 00       	push   0x5
 95b:	e9 90 ff ff ff       	jmp    8f0 <.plt>

0000000000000960 <dirname@plt>:
 960:	ff 25 e2 16 20 00    	jmp    QWORD PTR [rip+0x2016e2]        # 202048 <dirname@GLIBC_2.2.5>
 966:	68 06 00 00 00       	push   0x6
 96b:	e9 80 ff ff ff       	jmp    8f0 <.plt>

0000000000000970 <close@plt>:
 970:	ff 25 da 16 20 00    	jmp    QWORD PTR [rip+0x2016da]        # 202050 <close@GLIBC_2.2.5>
 976:	68 07 00 00 00       	push   0x7
 97b:	e9 70 ff ff ff       	jmp    8f0 <.plt>

0000000000000980 <read@plt>:
 980:	ff 25 d2 16 20 00    	jmp    QWORD PTR [rip+0x2016d2]        # 202058 <read@GLIBC_2.2.5>
 986:	68 08 00 00 00       	push   0x8
 98b:	e9 60 ff ff ff       	jmp    8f0 <.plt>

0000000000000990 <fgets@plt>:
 990:	ff 25 ca 16 20 00    	jmp    QWORD PTR [rip+0x2016ca]        # 202060 <fgets@GLIBC_2.2.5>
 996:	68 09 00 00 00       	push   0x9
 99b:	e9 50 ff ff ff       	jmp    8f0 <.plt>

00000000000009a0 <strtol@plt>:
 9a0:	ff 25 c2 16 20 00    	jmp    QWORD PTR [rip+0x2016c2]        # 202068 <strtol@GLIBC_2.2.5>
 9a6:	68 0a 00 00 00       	push   0xa
 9ab:	e9 40 ff ff ff       	jmp    8f0 <.plt>

00000000000009b0 <setvbuf@plt>:
 9b0:	ff 25 ba 16 20 00    	jmp    QWORD PTR [rip+0x2016ba]        # 202070 <setvbuf@GLIBC_2.2.5>
 9b6:	68 0b 00 00 00       	push   0xb
 9bb:	e9 30 ff ff ff       	jmp    8f0 <.plt>

00000000000009c0 <open@plt>:
 9c0:	ff 25 b2 16 20 00    	jmp    QWORD PTR [rip+0x2016b2]        # 202078 <open@GLIBC_2.2.5>
 9c6:	68 0c 00 00 00       	push   0xc
 9cb:	e9 20 ff ff ff       	jmp    8f0 <.plt>

00000000000009d0 <exit@plt>:
 9d0:	ff 25 aa 16 20 00    	jmp    QWORD PTR [rip+0x2016aa]        # 202080 <exit@GLIBC_2.2.5>
 9d6:	68 0d 00 00 00       	push   0xd
 9db:	e9 10 ff ff ff       	jmp    8f0 <.plt>

Disassembly of section .plt.got:

00000000000009e0 <puts@plt>:
 9e0:	ff 25 f2 15 20 00    	jmp    QWORD PTR [rip+0x2015f2]        # 201fd8 <puts@GLIBC_2.2.5>
 9e6:	66 90                	xchg   ax,ax

00000000000009e8 <__cxa_finalize@plt>:
 9e8:	ff 25 0a 16 20 00    	jmp    QWORD PTR [rip+0x20160a]        # 201ff8 <__cxa_finalize@GLIBC_2.2.5>
 9ee:	66 90                	xchg   ax,ax

Disassembly of section .text:

00000000000009f0 <_start>:
 9f0:	31 ed                	xor    ebp,ebp
 9f2:	49 89 d1             	mov    r9,rdx
 9f5:	5e                   	pop    rsi
 9f6:	48 89 e2             	mov    rdx,rsp
 9f9:	48 83 e4 f0          	and    rsp,0xfffffffffffffff0
 9fd:	50                   	push   rax
 9fe:	54                   	push   rsp
 9ff:	4c 8d 05 fa 03 00 00 	lea    r8,[rip+0x3fa]        # e00 <__libc_csu_fini>
 a06:	48 8d 0d 83 03 00 00 	lea    rcx,[rip+0x383]        # d90 <__libc_csu_init>
 a0d:	48 8d 3d 6a 02 00 00 	lea    rdi,[rip+0x26a]        # c7e <main>
 a14:	ff 15 c6 15 20 00    	call   QWORD PTR [rip+0x2015c6]        # 201fe0 <__libc_start_main@GLIBC_2.2.5>
 a1a:	f4                   	hlt    
 a1b:	0f 1f 44 00 00       	nop    DWORD PTR [rax+rax*1+0x0]

0000000000000a20 <deregister_tm_clones>:
 a20:	48 8d 3d 71 16 20 00 	lea    rdi,[rip+0x201671]        # 202098 <__TMC_END__>
 a27:	55                   	push   rbp
 a28:	48 8d 05 69 16 20 00 	lea    rax,[rip+0x201669]        # 202098 <__TMC_END__>
 a2f:	48 39 f8             	cmp    rax,rdi
 a32:	48 89 e5             	mov    rbp,rsp
 a35:	74 19                	je     a50 <deregister_tm_clones+0x30>
 a37:	48 8b 05 92 15 20 00 	mov    rax,QWORD PTR [rip+0x201592]        # 201fd0 <_ITM_deregisterTMCloneTable>
 a3e:	48 85 c0             	test   rax,rax
 a41:	74 0d                	je     a50 <deregister_tm_clones+0x30>
 a43:	5d                   	pop    rbp
 a44:	ff e0                	jmp    rax
 a46:	66 2e 0f 1f 84 00 00 	nop    WORD PTR cs:[rax+rax*1+0x0]
 a4d:	00 00 00 
 a50:	5d                   	pop    rbp
 a51:	c3                   	ret    
 a52:	0f 1f 40 00          	nop    DWORD PTR [rax+0x0]
 a56:	66 2e 0f 1f 84 00 00 	nop    WORD PTR cs:[rax+rax*1+0x0]
 a5d:	00 00 00 

0000000000000a60 <register_tm_clones>:
 a60:	48 8d 3d 31 16 20 00 	lea    rdi,[rip+0x201631]        # 202098 <__TMC_END__>
 a67:	48 8d 35 2a 16 20 00 	lea    rsi,[rip+0x20162a]        # 202098 <__TMC_END__>
 a6e:	55                   	push   rbp
 a6f:	48 29 fe             	sub    rsi,rdi
 a72:	48 89 e5             	mov    rbp,rsp
 a75:	48 c1 fe 03          	sar    rsi,0x3
 a79:	48 89 f0             	mov    rax,rsi
 a7c:	48 c1 e8 3f          	shr    rax,0x3f
 a80:	48 01 c6             	add    rsi,rax
 a83:	48 d1 fe             	sar    rsi,1
 a86:	74 18                	je     aa0 <register_tm_clones+0x40>
 a88:	48 8b 05 61 15 20 00 	mov    rax,QWORD PTR [rip+0x201561]        # 201ff0 <_ITM_registerTMCloneTable>
 a8f:	48 85 c0             	test   rax,rax
 a92:	74 0c                	je     aa0 <register_tm_clones+0x40>
 a94:	5d                   	pop    rbp
 a95:	ff e0                	jmp    rax
 a97:	66 0f 1f 84 00 00 00 	nop    WORD PTR [rax+rax*1+0x0]
 a9e:	00 00 
 aa0:	5d                   	pop    rbp
 aa1:	c3                   	ret    
 aa2:	0f 1f 40 00          	nop    DWORD PTR [rax+0x0]
 aa6:	66 2e 0f 1f 84 00 00 	nop    WORD PTR cs:[rax+rax*1+0x0]
 aad:	00 00 00 

0000000000000ab0 <__do_global_dtors_aux>:
 ab0:	80 3d 11 16 20 00 00 	cmp    BYTE PTR [rip+0x201611],0x0        # 2020c8 <completed.7698>
 ab7:	75 2f                	jne    ae8 <__do_global_dtors_aux+0x38>
 ab9:	48 83 3d 37 15 20 00 	cmp    QWORD PTR [rip+0x201537],0x0        # 201ff8 <__cxa_finalize@GLIBC_2.2.5>
 ac0:	00 
 ac1:	55                   	push   rbp
 ac2:	48 89 e5             	mov    rbp,rsp
 ac5:	74 0c                	je     ad3 <__do_global_dtors_aux+0x23>
 ac7:	48 8b 3d c2 15 20 00 	mov    rdi,QWORD PTR [rip+0x2015c2]        # 202090 <__dso_handle>
 ace:	e8 15 ff ff ff       	call   9e8 <__cxa_finalize@plt>
 ad3:	e8 48 ff ff ff       	call   a20 <deregister_tm_clones>
 ad8:	c6 05 e9 15 20 00 01 	mov    BYTE PTR [rip+0x2015e9],0x1        # 2020c8 <completed.7698>
 adf:	5d                   	pop    rbp
 ae0:	c3                   	ret    
 ae1:	0f 1f 80 00 00 00 00 	nop    DWORD PTR [rax+0x0]
 ae8:	f3 c3                	repz ret 
 aea:	66 0f 1f 44 00 00    	nop    WORD PTR [rax+rax*1+0x0]

0000000000000af0 <frame_dummy>:
 af0:	55                   	push   rbp
 af1:	48 89 e5             	mov    rbp,rsp
 af4:	5d                   	pop    rbp
 af5:	e9 66 ff ff ff       	jmp    a60 <register_tm_clones>

0000000000000afa <unbuffered>:
 afa:	55                   	push   rbp
 afb:	48 89 e5             	mov    rbp,rsp
 afe:	48 8b 05 ab 15 20 00 	mov    rax,QWORD PTR [rip+0x2015ab]        # 2020b0 <stdin@@GLIBC_2.2.5>
 b05:	b9 00 00 00 00       	mov    ecx,0x0
 b0a:	ba 02 00 00 00       	mov    edx,0x2
 b0f:	be 00 00 00 00       	mov    esi,0x0
 b14:	48 89 c7             	mov    rdi,rax
 b17:	e8 94 fe ff ff       	call   9b0 <setvbuf@plt>
 b1c:	48 8b 05 9d 15 20 00 	mov    rax,QWORD PTR [rip+0x20159d]        # 2020c0 <stderr@@GLIBC_2.2.5>
 b23:	b9 00 00 00 00       	mov    ecx,0x0
 b28:	ba 02 00 00 00       	mov    edx,0x2
 b2d:	be 00 00 00 00       	mov    esi,0x0
 b32:	48 89 c7             	mov    rdi,rax
 b35:	e8 76 fe ff ff       	call   9b0 <setvbuf@plt>
 b3a:	48 8b 05 5f 15 20 00 	mov    rax,QWORD PTR [rip+0x20155f]        # 2020a0 <stdout@@GLIBC_2.2.5>
 b41:	b9 00 00 00 00       	mov    ecx,0x0
 b46:	ba 02 00 00 00       	mov    edx,0x2
 b4b:	be 00 00 00 00       	mov    esi,0x0
 b50:	48 89 c7             	mov    rdi,rax
 b53:	e8 58 fe ff ff       	call   9b0 <setvbuf@plt>
 b58:	90                   	nop
 b59:	5d                   	pop    rbp
 b5a:	c3                   	ret    

0000000000000c5a <magic>:
 c5a:	55                   	push   rbp
 c5b:	48 89 e5             	mov    rbp,rsp
 c5e:	48 8d 3d c6 01 00 00 	lea    rdi,[rip+0x1c6]        # e2b <_IO_stdin_used+0x1b>
 c65:	e8 76 fd ff ff       	call   9e0 <puts@plt>
 c6a:	b8 00 00 00 00       	mov    eax,0x0
 c6f:	e8 e7 fe ff ff       	call   b5b <showflag>
 c74:	bf 00 00 00 00       	mov    edi,0x0
 c79:	e8 82 fc ff ff       	call   900 <_exit@plt>

0000000000000c7e <main>:
 c7e:	55                   	push   rbp
 c7f:	48 89 e5             	mov    rbp,rsp
 c82:	48 83 ec 60          	sub    rsp,0x60
 c86:	64 48 8b 04 25 28 00 	mov    rax,QWORD PTR fs:0x28
 c8d:	00 00 
 c8f:	48 89 45 f8          	mov    QWORD PTR [rbp-0x8],rax
 c93:	31 c0                	xor    eax,eax
 c95:	b8 00 00 00 00       	mov    eax,0x0
 c9a:	e8 5b fe ff ff       	call   afa <unbuffered>
 c9f:	48 8d 3d 8c 01 00 00 	lea    rdi,[rip+0x18c]        # e32 <_IO_stdin_used+0x22>
 ca6:	e8 35 fd ff ff       	call   9e0 <puts@plt>
 cab:	48 8d 35 cc ff ff ff 	lea    rsi,[rip+0xffffffffffffffcc]        # c7e <main>
 cb2:	48 8d 3d 82 01 00 00 	lea    rdi,[rip+0x182]        # e3b <_IO_stdin_used+0x2b>
 cb9:	b8 00 00 00 00       	mov    eax,0x0
 cbe:	e8 7d fc ff ff       	call   940 <printf@plt>
 cc3:	48 8b 05 0e 13 20 00 	mov    rax,QWORD PTR [rip+0x20130e]        # 201fd8 <puts@GLIBC_2.2.5>
 cca:	48 89 c6             	mov    rsi,rax
 ccd:	48 8d 3d 74 01 00 00 	lea    rdi,[rip+0x174]        # e48 <_IO_stdin_used+0x38>
 cd4:	b8 00 00 00 00       	mov    eax,0x0
 cd9:	e8 62 fc ff ff       	call   940 <printf@plt>
 cde:	48 8d 3d 70 01 00 00 	lea    rdi,[rip+0x170]        # e55 <_IO_stdin_used+0x45>
 ce5:	e8 f6 fc ff ff       	call   9e0 <puts@plt>
 cea:	48 8d 3d 65 01 00 00 	lea    rdi,[rip+0x165]        # e56 <_IO_stdin_used+0x46>
 cf1:	e8 ea fc ff ff       	call   9e0 <puts@plt>
 cf6:	48 8b 15 b3 13 20 00 	mov    rdx,QWORD PTR [rip+0x2013b3]        # 2020b0 <stdin@@GLIBC_2.2.5>
 cfd:	48 8d 45 b0          	lea    rax,[rbp-0x50]
 d01:	be 40 00 00 00       	mov    esi,0x40
 d06:	48 89 c7             	mov    rdi,rax
 d09:	e8 82 fc ff ff       	call   990 <fgets@plt>
 d0e:	48 85 c0             	test   rax,rax
 d11:	74 6a                	je     d7d <main+0xff>
 d13:	48 8d 45 b0          	lea    rax,[rbp-0x50]
 d17:	ba 00 00 00 00       	mov    edx,0x0
 d1c:	be 00 00 00 00       	mov    esi,0x0
 d21:	48 89 c7             	mov    rdi,rax
 d24:	e8 77 fc ff ff       	call   9a0 <strtol@plt>
 d29:	48 89 45 a0          	mov    QWORD PTR [rbp-0x60],rax
 d2d:	48 8d 3d 3f 01 00 00 	lea    rdi,[rip+0x13f]        # e73 <_IO_stdin_used+0x63>
 d34:	e8 a7 fc ff ff       	call   9e0 <puts@plt>
 d39:	48 8b 15 70 13 20 00 	mov    rdx,QWORD PTR [rip+0x201370]        # 2020b0 <stdin@@GLIBC_2.2.5>
 d40:	48 8d 45 b0          	lea    rax,[rbp-0x50]
 d44:	be 40 00 00 00       	mov    esi,0x40
 d49:	48 89 c7             	mov    rdi,rax
 d4c:	e8 3f fc ff ff       	call   990 <fgets@plt>
 d51:	48 85 c0             	test   rax,rax
 d54:	74 2a                	je     d80 <main+0x102>
 d56:	48 8d 45 b0          	lea    rax,[rbp-0x50]
 d5a:	ba 00 00 00 00       	mov    edx,0x0
 d5f:	be 00 00 00 00       	mov    esi,0x0
 d64:	48 89 c7             	mov    rdi,rax
 d67:	e8 34 fc ff ff       	call   9a0 <strtol@plt>
 d6c:	48 89 45 a8          	mov    QWORD PTR [rbp-0x58],rax
 d70:	48 8b 45 a0          	mov    rax,QWORD PTR [rbp-0x60]
 d74:	48 8b 55 a8          	mov    rdx,QWORD PTR [rbp-0x58]
 d78:	48 89 10             	mov    QWORD PTR [rax],rdx
 d7b:	eb 04                	jmp    d81 <main+0x103>
 d7d:	90                   	nop
 d7e:	eb 01                	jmp    d81 <main+0x103>
 d80:	90                   	nop
 d81:	bf 00 00 00 00       	mov    edi,0x0
 d86:	e8 45 fc ff ff       	call   9d0 <exit@plt>
 d8b:	0f 1f 44 00 00       	nop    DWORD PTR [rax+rax*1+0x0]

0000000000000d90 <__libc_csu_init>:
 d90:	41 57                	push   r15
 d92:	41 56                	push   r14
 d94:	49 89 d7             	mov    r15,rdx
 d97:	41 55                	push   r13
 d99:	41 54                	push   r12
 d9b:	4c 8d 25 3e 10 20 00 	lea    r12,[rip+0x20103e]        # 201de0 <__frame_dummy_init_array_entry>
 da2:	55                   	push   rbp
 da3:	48 8d 2d 3e 10 20 00 	lea    rbp,[rip+0x20103e]        # 201de8 <__init_array_end>
 daa:	53                   	push   rbx
 dab:	41 89 fd             	mov    r13d,edi
 dae:	49 89 f6             	mov    r14,rsi
 db1:	4c 29 e5             	sub    rbp,r12
 db4:	48 83 ec 08          	sub    rsp,0x8
 db8:	48 c1 fd 03          	sar    rbp,0x3
 dbc:	e8 17 fb ff ff       	call   8d8 <_init>
 dc1:	48 85 ed             	test   rbp,rbp
 dc4:	74 20                	je     de6 <__libc_csu_init+0x56>
 dc6:	31 db                	xor    ebx,ebx
 dc8:	0f 1f 84 00 00 00 00 	nop    DWORD PTR [rax+rax*1+0x0]
 dcf:	00 
 dd0:	4c 89 fa             	mov    rdx,r15
 dd3:	4c 89 f6             	mov    rsi,r14
 dd6:	44 89 ef             	mov    edi,r13d
 dd9:	41 ff 14 dc          	call   QWORD PTR [r12+rbx*8]
 ddd:	48 83 c3 01          	add    rbx,0x1
 de1:	48 39 dd             	cmp    rbp,rbx
 de4:	75 ea                	jne    dd0 <__libc_csu_init+0x40>
 de6:	48 83 c4 08          	add    rsp,0x8
 dea:	5b                   	pop    rbx
 deb:	5d                   	pop    rbp
 dec:	41 5c                	pop    r12
 dee:	41 5d                	pop    r13
 df0:	41 5e                	pop    r14
 df2:	41 5f                	pop    r15
 df4:	c3                   	ret    
 df5:	90                   	nop
 df6:	66 2e 0f 1f 84 00 00 	nop    WORD PTR cs:[rax+rax*1+0x0]
 dfd:	00 00 00 

0000000000000e00 <__libc_csu_fini>:
 e00:	f3 c3                	repz ret 

Disassembly of section .fini:

0000000000000e04 <_fini>:
 e04:	48 83 ec 08          	sub    rsp,0x8
 e08:	48 83 c4 08          	add    rsp,0x8
 e0c:	c3                   	ret    
